target datalayout = "e-m:e-p270:32:32-p271:32:32-p272:64:64-i64:64-i128:128-f80:128-n8:16:32:64-S128"
target triple = "x86_64-pc-linux-gnu"

%struct.Gia_Man_t_ = type { ptr, ptr, i32, i32, i32, i32, ptr, ptr, i32, i32, i32, ptr, ptr, %struct.Vec_Int_t_, %struct.Vec_Int_t_, i32, i32, i32, %struct.Vec_Int_t_, ptr, ptr, ptr, i32, i32, i32, i32, ptr, ptr, ptr, ptr, ptr, i32, i32, ptr, i32, ptr, ptr, ptr, ptr, ptr, ptr, ptr, ptr, ptr, ptr, ptr, ptr, ptr, ptr, ptr, ptr, ptr, ptr, %struct.Vec_Int_t_, %struct.Vec_Int_t_, ptr, ptr, ptr, ptr, ptr, ptr, ptr, ptr, ptr, ptr, ptr, ptr, ptr, ptr, ptr, ptr, ptr, ptr, ptr, ptr, ptr, i32, float, float, ptr, ptr, i32, ptr, ptr, ptr, ptr, ptr, ptr, ptr, ptr, ptr, ptr, ptr, ptr, ptr, ptr, ptr, i64, i64, ptr, ptr, i32, i32, i32, i32, i32, i32, i32, i32, i32, i32, i32, i32, ptr, ptr, ptr, ptr, ptr, ptr, ptr, ptr, i32, i32, i32, ptr, i32, i32, ptr, ptr, ptr, ptr, ptr, ptr, i32, i32, ptr, %struct.Vec_Int_t_, %struct.Vec_Int_t_, %struct.Vec_Int_t_, ptr, ptr, ptr, i32, i32, i32, i32, ptr, ptr, ptr, ptr, ptr }
%struct.Vec_Int_t_ = type { i32, i32, ptr }
%struct.Vec_Wrd_t_ = type { i32, i32, ptr }

; Function Attrs: inlinehint nounwind uwtable
define internal i32 @Abc_TtGetBit(ptr noundef %0, i32 noundef %1) #2 {
  %3 = alloca ptr, align 8
  %4 = alloca i32, align 4
  store ptr %0, ptr %3, align 8, !tbaa !66
  store i32 %1, ptr %4, align 4, !tbaa !8
  %5 = load ptr, ptr %3, align 8, !tbaa !66
  %6 = load i32, ptr %4, align 4, !tbaa !8
  %7 = ashr i32 %6, 6
  %8 = sext i32 %7 to i64
  %9 = getelementptr inbounds i64, ptr %5, i64 %8
  %10 = load i64, ptr %9, align 8, !tbaa !61
  %11 = load i32, ptr %4, align 4, !tbaa !8
  %12 = and i32 %11, 63
  %13 = zext i32 %12 to i64
  %14 = lshr i64 %10, %13
  %15 = trunc i64 %14 to i32
  %16 = and i32 %15, 1
  ret i32 %16
}

; Function Attrs: inlinehint nounwind uwtable
define internal ptr @Vec_WrdEntryP(ptr noundef %0, i32 noundef %1) #2 {
  %3 = alloca ptr, align 8
  %4 = alloca i32, align 4
  store ptr %0, ptr %3, align 8, !tbaa !145
  store i32 %1, ptr %4, align 4, !tbaa !8
  %5 = load ptr, ptr %3, align 8, !tbaa !145
  %6 = getelementptr inbounds nuw %struct.Vec_Wrd_t_, ptr %5, i32 0, i32 2
  %7 = load ptr, ptr %6, align 8, !tbaa !148
  %8 = load i32, ptr %4, align 4, !tbaa !8
  %9 = sext i32 %8 to i64
  %10 = getelementptr inbounds i64, ptr %7, i64 %9
  ret ptr %10
}

; Function Attrs: inlinehint nounwind uwtable
define internal i32 @Vec_IntEntry(ptr noundef %0, i32 noundef %1) #2 {
  %3 = alloca ptr, align 8
  %4 = alloca i32, align 4
  store ptr %0, ptr %3, align 8, !tbaa !55
  store i32 %1, ptr %4, align 4, !tbaa !8
  %5 = load ptr, ptr %3, align 8, !tbaa !55
  %6 = getelementptr inbounds nuw %struct.Vec_Int_t_, ptr %5, i32 0, i32 2
  %7 = load ptr, ptr %6, align 8, !tbaa !80
  %8 = load i32, ptr %4, align 4, !tbaa !8
  %9 = sext i32 %8 to i64
  %10 = getelementptr inbounds i32, ptr %7, i64 %9
  %11 = load i32, ptr %10, align 4, !tbaa !8
  ret i32 %11
}

; Function Attrs: inlinehint nounwind uwtable
define internal i32 @Vec_IntSize(ptr noundef %0) #2 {
  %2 = alloca ptr, align 8
  store ptr %0, ptr %2, align 8, !tbaa !55
  %3 = load ptr, ptr %2, align 8, !tbaa !55
  %4 = getelementptr inbounds nuw %struct.Vec_Int_t_, ptr %3, i32 0, i32 1
  %5 = load i32, ptr %4, align 4, !tbaa !78
  ret i32 %5
}

; Function Attrs: inlinehint nounwind uwtable
define internal i32 @Gia_ManCiNum(ptr noundef %0) #2 {
  %2 = alloca ptr, align 8
  store ptr %0, ptr %2, align 8, !tbaa !38
  %3 = load ptr, ptr %2, align 8, !tbaa !38
  %4 = getelementptr inbounds nuw %struct.Gia_Man_t_, ptr %3, i32 0, i32 11
  %5 = load ptr, ptr %4, align 8, !tbaa !92
  %6 = call i32 @Vec_IntSize(ptr noundef %5)
  ret i32 %6
}

; Function Attrs: inlinehint nounwind uwtable
define internal i32 @Vec_WrdSize(ptr noundef %0) #2 {
  %2 = alloca ptr, align 8
  store ptr %0, ptr %2, align 8, !tbaa !145
  %3 = load ptr, ptr %2, align 8, !tbaa !145
  %4 = getelementptr inbounds nuw %struct.Vec_Wrd_t_, ptr %3, i32 0, i32 1
  %5 = load i32, ptr %4, align 4, !tbaa !156
  ret i32 %5
}

; Function Attrs: nounwind uwtable
define i32 @Gia_ManFindSatDcs(ptr noundef %0, ptr noundef %1, ptr noundef %2) #0 {
  %4 = alloca ptr, align 8
  %5 = alloca ptr, align 8
  %6 = alloca ptr, align 8
  %7 = alloca i32, align 4
  %8 = alloca i32, align 4
  %9 = alloca i32, align 4
  %10 = alloca i32, align 4
  %11 = alloca i32, align 4
  %12 = alloca [256 x i32], align 16
  %13 = alloca i32, align 4
  %14 = alloca i32, align 4
  store ptr %0, ptr %4, align 8, !tbaa !38
  store ptr %1, ptr %5, align 8, !tbaa !145
  store ptr %2, ptr %6, align 8, !tbaa !55
  call void @llvm.lifetime.start.p0(i64 4, ptr %7) #12
  %15 = load ptr, ptr %4, align 8, !tbaa !38
  %16 = getelementptr inbounds nuw %struct.Gia_Man_t_, ptr %15, i32 0, i32 115
  %17 = load ptr, ptr %16, align 8, !tbaa !144
  %18 = call i32 @Vec_WrdSize(ptr noundef %17)
  %19 = load ptr, ptr %4, align 8, !tbaa !38
  %20 = call i32 @Gia_ManCiNum(ptr noundef %19)
  %21 = sdiv i32 %18, %20
  store i32 %21, ptr %7, align 4, !tbaa !8
  call void @llvm.lifetime.start.p0(i64 4, ptr %8) #12
  call void @llvm.lifetime.start.p0(i64 4, ptr %9) #12
  call void @llvm.lifetime.start.p0(i64 4, ptr %10) #12
  call void @llvm.lifetime.start.p0(i64 4, ptr %11) #12
  store i32 0, ptr %11, align 4, !tbaa !8
  call void @llvm.lifetime.start.p0(i64 1024, ptr %12) #12
  call void @llvm.memset.p0.i64(ptr align 16 %12, i8 0, i64 1024, i1 false)
  call void @llvm.lifetime.start.p0(i64 4, ptr %13) #12
  %22 = load ptr, ptr %6, align 8, !tbaa !55
  %23 = call i32 @Vec_IntSize(ptr noundef %22)
  %24 = shl i32 1, %23
  store i32 %24, ptr %13, align 4, !tbaa !8
  store i32 0, ptr %9, align 4, !tbaa !8
  br label %25

25:                                               ; preds = %66, %3
  %26 = load i32, ptr %9, align 4, !tbaa !8
  %27 = load i32, ptr %7, align 4, !tbaa !8
  %28 = mul nsw i32 64, %27
  %29 = icmp slt i32 %26, %28
  br i1 %29, label %30, label %69

30:                                               ; preds = %25
  call void @llvm.lifetime.start.p0(i64 4, ptr %14) #12
  store i32 0, ptr %14, align 4, !tbaa !8
  store i32 0, ptr %8, align 4, !tbaa !8
  br label %31

31:                                               ; preds = %57, %30
  %32 = load i32, ptr %8, align 4, !tbaa !8
  %33 = load ptr, ptr %6, align 8, !tbaa !55
  %34 = call i32 @Vec_IntSize(ptr noundef %33)
  %35 = icmp slt i32 %32, %34
  br i1 %35, label %36, label %40

36:                                               ; preds = %31
  %37 = load ptr, ptr %6, align 8, !tbaa !55
  %38 = load i32, ptr %8, align 4, !tbaa !8
  %39 = call i32 @Vec_IntEntry(ptr noundef %37, i32 noundef %38)
  store i32 %39, ptr %10, align 4, !tbaa !8
  br label %40

40:                                               ; preds = %36, %31
  %41 = phi i1 [ false, %31 ], [ true, %36 ]
  br i1 %41, label %42, label %60

42:                                               ; preds = %40
  %43 = load ptr, ptr %5, align 8, !tbaa !145
  %44 = load i32, ptr %10, align 4, !tbaa !8
  %45 = load i32, ptr %7, align 4, !tbaa !8
  %46 = mul nsw i32 %44, %45
  %47 = call ptr @Vec_WrdEntryP(ptr noundef %43, i32 noundef %46)
  %48 = load i32, ptr %9, align 4, !tbaa !8
  %49 = call i32 @Abc_TtGetBit(ptr noundef %47, i32 noundef %48)
  %50 = icmp ne i32 %49, 0
  br i1 %50, label %51, label %56

51:                                               ; preds = %42
  %52 = load i32, ptr %8, align 4, !tbaa !8
  %53 = shl i32 1, %52
  %54 = load i32, ptr %14, align 4, !tbaa !8
  %55 = or i32 %54, %53
  store i32 %55, ptr %14, align 4, !tbaa !8
  br label %56

56:                                               ; preds = %51, %42
  br label %57

57:                                               ; preds = %56
  %58 = load i32, ptr %8, align 4, !tbaa !8
  %59 = add nsw i32 %58, 1
  store i32 %59, ptr %8, align 4, !tbaa !8
  br label %31, !llvm.loop !153

60:                                               ; preds = %40
  %61 = load i32, ptr %14, align 4, !tbaa !8
  %62 = sext i32 %61 to i64
  %63 = getelementptr inbounds [256 x i32], ptr %12, i64 0, i64 %62
  %64 = load i32, ptr %63, align 4, !tbaa !8
  %65 = add nsw i32 %64, 1
  store i32 %65, ptr %63, align 4, !tbaa !8
  call void @llvm.lifetime.end.p0(i64 4, ptr %14) #12
  br label %66

66:                                               ; preds = %60
  %67 = load i32, ptr %9, align 4, !tbaa !8
  %68 = add nsw i32 %67, 1
  store i32 %68, ptr %9, align 4, !tbaa !8
  br label %25, !llvm.loop !154

69:                                               ; preds = %25
  store i32 0, ptr %8, align 4, !tbaa !8
  br label %70

70:                                               ; preds = %83, %69
  %71 = load i32, ptr %8, align 4, !tbaa !8
  %72 = load i32, ptr %13, align 4, !tbaa !8
  %73 = icmp slt i32 %71, %72
  br i1 %73, label %74, label %86

74:                                               ; preds = %70
  %75 = load i32, ptr %8, align 4, !tbaa !8
  %76 = sext i32 %75 to i64
  %77 = getelementptr inbounds [256 x i32], ptr %12, i64 0, i64 %76
  %78 = load i32, ptr %77, align 4, !tbaa !8
  %79 = icmp eq i32 %78, 0
  %80 = zext i1 %79 to i32
  %81 = load i32, ptr %11, align 4, !tbaa !8
  %82 = add nsw i32 %81, %80
  store i32 %82, ptr %11, align 4, !tbaa !8
  br label %83

83:                                               ; preds = %74
  %84 = load i32, ptr %8, align 4, !tbaa !8
  %85 = add nsw i32 %84, 1
  store i32 %85, ptr %8, align 4, !tbaa !8
  br label %70, !llvm.loop !155

86:                                               ; preds = %70
  %87 = load i32, ptr %11, align 4, !tbaa !8
  call void @llvm.lifetime.end.p0(i64 4, ptr %13) #12
  call void @llvm.lifetime.end.p0(i64 1024, ptr %12) #12
  call void @llvm.lifetime.end.p0(i64 4, ptr %11) #12
  call void @llvm.lifetime.end.p0(i64 4, ptr %10) #12
  call void @llvm.lifetime.end.p0(i64 4, ptr %9) #12
  call void @llvm.lifetime.end.p0(i64 4, ptr %8) #12
  call void @llvm.lifetime.end.p0(i64 4, ptr %7) #12
  ret i32 %87
}