; Function Attrs: nofree norecurse nosync nounwind memory(read, inaccessiblemem: none) uwtable
define i32 @Gia_ManFindSatDcs(ptr noundef readonly captures(none) %0, ptr noundef readonly captures(none) %1, ptr noundef readonly captures(none) %2) local_unnamed_addr #11 {
  %4 = alloca [256 x i32], align 16
  %5 = getelementptr inbounds nuw i8, ptr %0, i64 848
  %6 = load ptr, ptr %5, align 8, !tbaa !169
  %7 = getelementptr i8, ptr %6, i64 4
  %.val30 = load i32, ptr %7, align 4, !tbaa !165
  %8 = getelementptr i8, ptr %0, i64 64
  %.val29 = load ptr, ptr %8, align 8, !tbaa !110
  %9 = getelementptr i8, ptr %.val29, i64 4
  %.val29.val = load i32, ptr %9, align 4, !tbaa !89
  %10 = sdiv i32 %.val30, %.val29.val
  call void @llvm.lifetime.start.p0(i64 1024, ptr nonnull %4) #26
  call void @llvm.memset.p0.i64(ptr noundef nonnull align 16 dereferenceable(1024) %4, i8 0, i64 1024, i1 false)
  %11 = getelementptr i8, ptr %2, i64 4
  %.val28 = load i32, ptr %11, align 4, !tbaa !89
  %12 = shl nuw i32 1, %.val28
  %13 = shl i32 %10, 6
  %14 = icmp sgt i32 %10, 0
  br i1 %14, label %.preheader32.lr.ph, label %.preheader

.preheader32.lr.ph:                               ; preds = %3
  %15 = icmp sgt i32 %.val28, 0
  br i1 %15, label %.preheader32.lr.ph.split.us, label %.preheader.thread

.preheader32.lr.ph.split.us:                      ; preds = %.preheader32.lr.ph
  %16 = getelementptr i8, ptr %1, i64 8
  %17 = getelementptr i8, ptr %2, i64 8
  %.val.us = load ptr, ptr %17, align 8, !tbaa !36
  %.val31.us = load ptr, ptr %16, align 8, !tbaa !162
  %smax40 = tail call i32 @llvm.smax.i32(i32 %13, i32 1)
  %wide.trip.count = zext nneg i32 %.val28 to i64
  br label %.preheader32.us

.preheader32.us:                                  ; preds = %..critedge_crit_edge.us, %.preheader32.lr.ph.split.us
  %.02635.us = phi i32 [ 0, %.preheader32.lr.ph.split.us ], [ %37, %..critedge_crit_edge.us ]
  %18 = lshr i32 %.02635.us, 6
  %19 = zext nneg i32 %18 to i64
  %invariant.gep.us = getelementptr i64, ptr %.val31.us, i64 %19
  %20 = and i32 %.02635.us, 63
  %21 = zext nneg i32 %20 to i64
  %22 = shl nuw i64 1, %21
  br label %23

23:                                               ; preds = %.preheader32.us, %23
  %indvars.iv = phi i64 [ 0, %.preheader32.us ], [ %indvars.iv.next, %23 ]
  %.034.us = phi i32 [ 0, %.preheader32.us ], [ %.1.us, %23 ]
  %24 = getelementptr inbounds nuw i32, ptr %.val.us, i64 %indvars.iv
  %25 = load i32, ptr %24, align 4, !tbaa !37
  %26 = mul nsw i32 %25, %10
  %27 = sext i32 %26 to i64
  %gep.us = getelementptr i64, ptr %invariant.gep.us, i64 %27
  %28 = load i64, ptr %gep.us, align 8, !tbaa !70
  %29 = and i64 %28, %22
  %.not.us = icmp eq i64 %29, 0
  %30 = trunc nuw nsw i64 %indvars.iv to i32
  %31 = shl nuw i32 1, %30
  %32 = select i1 %.not.us, i32 0, i32 %31
  %.1.us = or i32 %32, %.034.us
  %indvars.iv.next = add nuw nsw i64 %indvars.iv, 1
  %exitcond.not = icmp eq i64 %indvars.iv.next, %wide.trip.count
  br i1 %exitcond.not, label %..critedge_crit_edge.us, label %23, !llvm.loop !170

..critedge_crit_edge.us:                          ; preds = %23
  %33 = sext i32 %.1.us to i64
  %34 = getelementptr inbounds [256 x i32], ptr %4, i64 0, i64 %33
  %35 = load i32, ptr %34, align 4, !tbaa !37
  %36 = add nsw i32 %35, 1
  store i32 %36, ptr %34, align 4, !tbaa !37
  %37 = add nuw nsw i32 %.02635.us, 1
  %exitcond41.not = icmp eq i32 %37, %smax40
  br i1 %exitcond41.not, label %.preheader, label %.preheader32.us, !llvm.loop !171

.preheader.thread:                                ; preds = %.preheader32.lr.ph
  %smax = tail call i32 @llvm.smax.i32(i32 %13, i32 1)
  store i32 %smax, ptr %4, align 16, !tbaa !37
  br label %.lr.ph.preheader

.preheader:                                       ; preds = %..critedge_crit_edge.us, %3
  %.not = icmp eq i32 %.val28, 31
  br i1 %.not, label %._crit_edge, label %.lr.ph.preheader

.lr.ph.preheader:                                 ; preds = %.preheader.thread, %.preheader
  %smax45 = tail call i32 @llvm.smax.i32(i32 %12, i32 1)
  %wide.trip.count46 = zext nneg i32 %smax45 to i64
  br label %.lr.ph

.lr.ph:                                           ; preds = %.lr.ph.preheader, %.lr.ph
  %indvars.iv42 = phi i64 [ 0, %.lr.ph.preheader ], [ %indvars.iv.next43, %.lr.ph ]
  %.02536 = phi i32 [ 0, %.lr.ph.preheader ], [ %42, %.lr.ph ]
  %38 = getelementptr inbounds nuw [256 x i32], ptr %4, i64 0, i64 %indvars.iv42
  %39 = load i32, ptr %38, align 4, !tbaa !37
  %40 = icmp eq i32 %39, 0
  %41 = zext i1 %40 to i32
  %42 = add nuw nsw i32 %.02536, %41
  %indvars.iv.next43 = add nuw nsw i64 %indvars.iv42, 1
  %exitcond47.not = icmp eq i64 %indvars.iv.next43, %wide.trip.count46
  br i1 %exitcond47.not, label %._crit_edge, label %.lr.ph, !llvm.loop !172

._crit_edge:                                      ; preds = %.lr.ph, %.preheader
  %.025.lcssa = phi i32 [ 0, %.preheader ], [ %42, %.lr.ph ]
  call void @llvm.lifetime.end.p0(i64 1024, ptr nonnull %4) #26
  ret i32 %.025.lcssa
}